target datalayout = "e-m:e-p270:32:32-p271:32:32-p272:64:64-i64:64-i128:128-f80:128-n8:16:32:64-S128"
target triple = "x86_64-pc-linux-gnu"

%struct.Exstate_s = type { ptr, i32, i32, %struct.Exinput_s, ptr, ptr, ptr, i32, i32, i32, ptr, [1 x i8] }
%struct.Exinput_s = type { ptr, i32, ptr, ptr, i32, i32, i32, i32, ptr, ptr }
%struct.Error_info_s = type { i32, i32, i32, i32, i32, ptr, ptr }
%union.EX_STYPE = type { ptr }
%struct.Expr_s = type { ptr, ptr, [10 x ptr], ptr, ptr, ptr, %struct._dtdisc_s, ptr, ptr, ptr, %struct.agxbuf, %union.EX_STYPE, %struct.Exid_s, [512 x i8], ptr, i32, i32, i32, i32, i64, i32, i32 }
%struct._dtdisc_s = type { i32, i32, i32, ptr, ptr, ptr }
%struct.agxbuf = type { %union.anon }
%union.anon = type { %struct.anon }
%struct.anon = type { ptr, i64, i64, [7 x i8], i8 }
%struct.Exid_s = type { %struct._dtlink_s, i64, i64, i64, i64, i64, ptr, ptr, i64, [32 x i8] }
%struct._dtlink_s = type { ptr, %union.anon.0 }
%union.anon.0 = type { ptr }

@expr = global %struct.Exstate_s zeroinitializer, align 8
@_err_info = external global %struct.Error_info_s, align 8
@.str.10 = private unnamed_addr constant [38 x i8] c"unbalanced quote or nesting construct\00", align 1

; Function Attrs: nounwind uwtable
define i32 @expop(ptr noundef %0) #0 {
  %2 = alloca i32, align 4
  %3 = alloca ptr, align 8
  %4 = alloca i32, align 4
  %5 = alloca ptr, align 8
  store ptr %0, ptr %3, align 8
  %6 = load ptr, ptr %3, align 8
  %7 = getelementptr inbounds %struct.Expr_s, ptr %6, i32 0, i32 8
  %8 = load ptr, ptr %7, align 8
  store ptr %8, ptr %5, align 8
  %9 = icmp ne ptr %8, null
  br i1 %9, label %10, label %20

10:                                               ; preds = %1
  %11 = load ptr, ptr %5, align 8
  %12 = getelementptr inbounds %struct.Exinput_s, ptr %11, i32 0, i32 0
  %13 = load ptr, ptr %12, align 8
  %14 = icmp ne ptr %13, null
  br i1 %14, label %15, label %20

15:                                               ; preds = %10
  %16 = load ptr, ptr %5, align 8
  %17 = getelementptr inbounds %struct.Exinput_s, ptr %16, i32 0, i32 7
  %18 = load i32, ptr %17, align 4
  %19 = icmp ne i32 %18, 0
  br i1 %19, label %20, label %21

20:                                               ; preds = %15, %10, %1
  store i32 -1, ptr %2, align 4
  br label %125

21:                                               ; preds = %15
  %22 = load ptr, ptr %5, align 8
  %23 = getelementptr inbounds %struct.Exinput_s, ptr %22, i32 0, i32 5
  %24 = load i32, ptr %23, align 4
  %25 = icmp ne i32 %24, 0
  br i1 %25, label %26, label %27

26:                                               ; preds = %21
  call void (ptr, ...) @exerror(ptr noundef @.str.10)
  br label %27

27:                                               ; preds = %26, %21
  %28 = load ptr, ptr %5, align 8
  %29 = getelementptr inbounds %struct.Exinput_s, ptr %28, i32 0, i32 2
  %30 = load ptr, ptr %29, align 8
  %31 = getelementptr inbounds %struct.Error_info_s, ptr @_err_info, i32 0, i32 5
  store ptr %30, ptr %31, align 8
  %32 = load ptr, ptr %5, align 8
  %33 = getelementptr inbounds %struct.Exinput_s, ptr %32, i32 0, i32 0
  %34 = load ptr, ptr %33, align 8
  %35 = getelementptr inbounds %struct.Exinput_s, ptr %34, i32 0, i32 0
  %36 = load ptr, ptr %35, align 8
  %37 = icmp ne ptr %36, null
  br i1 %37, label %38, label %43

38:                                               ; preds = %27
  %39 = load ptr, ptr %5, align 8
  %40 = getelementptr inbounds %struct.Exinput_s, ptr %39, i32 0, i32 4
  %41 = load i32, ptr %40, align 8
  %42 = getelementptr inbounds %struct.Error_info_s, ptr @_err_info, i32 0, i32 2
  store i32 %41, ptr %42, align 8
  br label %83

43:                                               ; preds = %27
  %44 = load ptr, ptr %3, align 8
  %45 = getelementptr inbounds %struct.Expr_s, ptr %44, i32 0, i32 16
  %46 = load i32, ptr %45, align 4
  %47 = icmp ne i32 %46, 0
  br i1 %47, label %48, label %78

48:                                               ; preds = %43
  %49 = load ptr, ptr %5, align 8
  %50 = getelementptr inbounds %struct.Exinput_s, ptr %49, i32 0, i32 3
  %51 = load ptr, ptr %50, align 8
  %52 = icmp ne ptr %51, null
  br i1 %52, label %53, label %78

53:                                               ; preds = %48
  %54 = load ptr, ptr %3, align 8
  %55 = getelementptr inbounds %struct.Expr_s, ptr %54, i32 0, i32 14
  %56 = load ptr, ptr %55, align 8
  %57 = load ptr, ptr %3, align 8
  %58 = getelementptr inbounds %struct.Expr_s, ptr %57, i32 0, i32 13
  %59 = getelementptr inbounds [512 x i8], ptr %58, i64 0, i64 0
  %60 = icmp ne ptr %56, %59
  br i1 %60, label %61, label %78

61:                                               ; preds = %53
  br label %62

62:                                               ; preds = %76, %61
  %63 = load ptr, ptr %5, align 8
  %64 = getelementptr inbounds %struct.Exinput_s, ptr %63, i32 0, i32 3
  %65 = load ptr, ptr %64, align 8
  %66 = call i32 @getc(ptr noundef %65)
  store i32 %66, ptr %4, align 4
  %67 = icmp ne i32 %66, -1
  br i1 %67, label %68, label %77

68:                                               ; preds = %62
  %69 = load i32, ptr %4, align 4
  %70 = icmp eq i32 %69, 10
  br i1 %70, label %71, label %76

71:                                               ; preds = %68
  %72 = getelementptr inbounds %struct.Error_info_s, ptr @_err_info, i32 0, i32 2
  %73 = load i32, ptr %72, align 8
  %74 = add nsw i32 %73, 1
  %75 = getelementptr inbounds %struct.Error_info_s, ptr @_err_info, i32 0, i32 2
  store i32 %74, ptr %75, align 8
  br label %77

76:                                               ; preds = %68
  br label %62

77:                                               ; preds = %71, %62
  br label %78

78:                                               ; preds = %77, %53, %48, %43
  %79 = load ptr, ptr %5, align 8
  %80 = getelementptr inbounds %struct.Exinput_s, ptr %79, i32 0, i32 4
  %81 = load i32, ptr %80, align 8
  %82 = getelementptr inbounds %struct.Error_info_s, ptr @_err_info, i32 0, i32 2
  store i32 %81, ptr %82, align 8
  br label %83

83:                                               ; preds = %78, %38
  %84 = load ptr, ptr %5, align 8
  %85 = getelementptr inbounds %struct.Exinput_s, ptr %84, i32 0, i32 3
  %86 = load ptr, ptr %85, align 8
  %87 = icmp ne ptr %86, null
  br i1 %87, label %88, label %98

88:                                               ; preds = %83
  %89 = load ptr, ptr %5, align 8
  %90 = getelementptr inbounds %struct.Exinput_s, ptr %89, i32 0, i32 1
  %91 = load i32, ptr %90, align 8
  %92 = icmp ne i32 %91, 0
  br i1 %92, label %93, label %98

93:                                               ; preds = %88
  %94 = load ptr, ptr %5, align 8
  %95 = getelementptr inbounds %struct.Exinput_s, ptr %94, i32 0, i32 3
  %96 = load ptr, ptr %95, align 8
  %97 = call i32 @fclose(ptr noundef %96)
  br label %98

98:                                               ; preds = %93, %88, %83
  %99 = load ptr, ptr %5, align 8
  %100 = getelementptr inbounds %struct.Exinput_s, ptr %99, i32 0, i32 8
  %101 = load ptr, ptr %100, align 8
  call void @free(ptr noundef %101) #12
  %102 = load ptr, ptr %5, align 8
  %103 = getelementptr inbounds %struct.Exinput_s, ptr %102, i32 0, i32 0
  %104 = load ptr, ptr %103, align 8
  %105 = load ptr, ptr %3, align 8
  %106 = getelementptr inbounds %struct.Expr_s, ptr %105, i32 0, i32 8
  store ptr %104, ptr %106, align 8
  %107 = load ptr, ptr %5, align 8
  call void @free(ptr noundef %107) #12
  %108 = load ptr, ptr %3, align 8
  %109 = getelementptr inbounds %struct.Expr_s, ptr %108, i32 0, i32 13
  %110 = getelementptr inbounds [512 x i8], ptr %109, i64 0, i64 0
  %111 = load ptr, ptr %3, align 8
  %112 = getelementptr inbounds %struct.Expr_s, ptr %111, i32 0, i32 14
  store ptr %110, ptr %112, align 8
  %113 = load ptr, ptr %3, align 8
  %114 = getelementptr inbounds %struct.Expr_s, ptr %113, i32 0, i32 18
  store i32 0, ptr %114, align 4
  %115 = load ptr, ptr %3, align 8
  %116 = getelementptr inbounds %struct.Expr_s, ptr %115, i32 0, i32 9
  %117 = load ptr, ptr %116, align 8
  %118 = icmp ne ptr %117, null
  br i1 %118, label %119, label %124

119:                                              ; preds = %98
  %120 = load ptr, ptr %3, align 8
  %121 = getelementptr inbounds %struct.Expr_s, ptr %120, i32 0, i32 9
  %122 = load ptr, ptr %121, align 8
  %123 = getelementptr inbounds %struct.Exstate_s, ptr @expr, i32 0, i32 4
  store ptr %122, ptr %123, align 8
  br label %124

124:                                              ; preds = %119, %98
  store i32 0, ptr %2, align 4
  br label %125

125:                                              ; preds = %124, %20
  %126 = load i32, ptr %2, align 4
  ret i32 %126
}