; Function Attrs: nounwind uwtable
define range(i32 -1, 1) i32 @expop(ptr noundef %0) local_unnamed_addr #0 {
  %2 = getelementptr inbounds nuw i8, ptr %0, i64 168
  %3 = load ptr, ptr %2, align 8
  %.not = icmp eq ptr %3, null
  br i1 %.not, label %47, label %4

4:                                                ; preds = %1
  %5 = load ptr, ptr %3, align 8
  %.not30 = icmp eq ptr %5, null
  br i1 %.not30, label %47, label %6

6:                                                ; preds = %4
  %7 = getelementptr inbounds nuw i8, ptr %3, i64 44
  %8 = load i32, ptr %7, align 4
  %.not31 = icmp eq i32 %8, 0
  br i1 %.not31, label %9, label %47

9:                                                ; preds = %6
  %10 = getelementptr inbounds nuw i8, ptr %3, i64 36
  %11 = load i32, ptr %10, align 4
  %.not32 = icmp eq i32 %11, 0
  br i1 %.not32, label %13, label %12

12:                                               ; preds = %9
  tail call void (ptr, ...) @exerror(ptr noundef nonnull @.str.10) #22
  br label %13

13:                                               ; preds = %12, %9
  %14 = getelementptr inbounds nuw i8, ptr %3, i64 16
  %15 = load ptr, ptr %14, align 8
  store ptr %15, ptr getelementptr inbounds nuw (i8, ptr @_err_info, i64 24), align 8
  %16 = load ptr, ptr %3, align 8
  %17 = load ptr, ptr %16, align 8
  %.not33 = icmp eq ptr %17, null
  br i1 %.not33, label %18, label %.loopexit

18:                                               ; preds = %13
  %19 = getelementptr inbounds nuw i8, ptr %0, i64 860
  %20 = load i32, ptr %19, align 4
  %.not34 = icmp eq i32 %20, 0
  br i1 %.not34, label %.loopexit, label %21

21:                                               ; preds = %18
  %22 = getelementptr inbounds nuw i8, ptr %3, i64 24
  %23 = load ptr, ptr %22, align 8
  %.not35 = icmp eq ptr %23, null
  br i1 %.not35, label %.loopexit, label %24

24:                                               ; preds = %21
  %25 = getelementptr inbounds nuw i8, ptr %0, i64 848
  %26 = load ptr, ptr %25, align 8
  %27 = getelementptr inbounds nuw i8, ptr %0, i64 336
  %.not36 = icmp eq ptr %26, %27
  br i1 %.not36, label %.loopexit, label %.preheader

.preheader:                                       ; preds = %24, %.preheader
  %28 = load ptr, ptr %22, align 8
  %29 = tail call i32 @getc(ptr noundef %28)
  switch i32 %29, label %.preheader [
    i32 -1, label %.loopexit
    i32 10, label %.loopexit
  ]

.loopexit:                                        ; preds = %.preheader, %.preheader, %18, %21, %24, %13
  %storemerge.in = getelementptr inbounds nuw i8, ptr %3, i64 32
  %storemerge = load i32, ptr %storemerge.in, align 8
  store i32 %storemerge, ptr getelementptr inbounds nuw (i8, ptr @_err_info, i64 8), align 8
  %30 = getelementptr inbounds nuw i8, ptr %3, i64 24
  %31 = load ptr, ptr %30, align 8
  %.not38 = icmp eq ptr %31, null
  br i1 %.not38, label %37, label %32

32:                                               ; preds = %.loopexit
  %33 = getelementptr inbounds nuw i8, ptr %3, i64 8
  %34 = load i32, ptr %33, align 8
  %.not39 = icmp eq i32 %34, 0
  br i1 %.not39, label %37, label %35

35:                                               ; preds = %32
  %36 = tail call i32 @fclose(ptr noundef nonnull %31)
  br label %37

37:                                               ; preds = %35, %32, %.loopexit
  %38 = getelementptr inbounds nuw i8, ptr %3, i64 48
  %39 = load ptr, ptr %38, align 8
  tail call void @free(ptr noundef %39) #22
  %40 = load ptr, ptr %3, align 8
  store ptr %40, ptr %2, align 8
  tail call void @free(ptr noundef nonnull %3) #22
  %41 = getelementptr inbounds nuw i8, ptr %0, i64 336
  %42 = getelementptr inbounds nuw i8, ptr %0, i64 848
  store ptr %41, ptr %42, align 8
  %43 = getelementptr inbounds nuw i8, ptr %0, i64 868
  store i32 0, ptr %43, align 4
  %44 = getelementptr inbounds nuw i8, ptr %0, i64 176
  %45 = load ptr, ptr %44, align 8
  %.not40 = icmp eq ptr %45, null
  br i1 %.not40, label %47, label %46

46:                                               ; preds = %37
  store ptr %45, ptr getelementptr inbounds nuw (i8, ptr @expr, i64 80), align 8
  br label %47

47:                                               ; preds = %37, %46, %1, %4, %6
  %.0 = phi i32 [ -1, %6 ], [ -1, %4 ], [ -1, %1 ], [ 0, %46 ], [ 0, %37 ]
  ret i32 %.0
}